; Function Attrs: mustprogress nounwind uwtable
define noundef nonnull align 8 dereferenceable(20) ptr @_ZN4pkpy7SStreamlsESt17basic_string_viewIcSt11char_traitsIcEE(ptr noundef nonnull returned align 8 dereferenceable(20) %0, i64 %1, ptr readonly %2) local_unnamed_addr #4 align 2 {
  %4 = getelementptr inbounds i8, ptr %2, i64 %1
  %.not6.i = icmp eq i64 %1, 0
  br i1 %.not6.i, label %_ZN4pkpy10pod_vectorIcLi2EE6extendEPKcS3_.exit, label %.lr.ph.i

.lr.ph.i:                                         ; preds = %3
  %5 = getelementptr inbounds i8, ptr %0, i64 4
  %6 = getelementptr inbounds i8, ptr %0, i64 8
  br label %7

7:                                                ; preds = %_ZN4pkpy10pod_vectorIcLi2EE9push_backIRKcEEvOT_.exit.i, %.lr.ph.i
  %.07.i = phi ptr [ %2, %.lr.ph.i ], [ %25, %_ZN4pkpy10pod_vectorIcLi2EE9push_backIRKcEEvOT_.exit.i ]
  %8 = load i32, ptr %0, align 8
  %9 = load i32, ptr %5, align 4
  %10 = icmp eq i32 %8, %9
  br i1 %10, label %11, label %_ZN4pkpy10pod_vectorIcLi2EE9push_backIRKcEEvOT_.exit.i

11:                                               ; preds = %7
  %12 = shl nsw i32 %8, 1
  %.not.i.i.i = icmp slt i32 %8, %12
  br i1 %.not.i.i.i, label %13, label %_ZN4pkpy10pod_vectorIcLi2EE9push_backIRKcEEvOT_.exit.i

13:                                               ; preds = %11
  store i32 %12, ptr %5, align 4
  %14 = load ptr, ptr %6, align 8
  %15 = sext i32 %12 to i64
  %16 = tail call noundef ptr @_ZN4pkpy12pool64_allocEm(i64 noundef %15) #23
  store ptr %16, ptr %6, align 8
  %.not6.i.i.i = icmp eq ptr %14, null
  %.pre2.i.i = load i32, ptr %0, align 8
  br i1 %.not6.i.i.i, label %_ZN4pkpy10pod_vectorIcLi2EE9push_backIRKcEEvOT_.exit.i, label %17

17:                                               ; preds = %13
  %18 = sext i32 %.pre2.i.i to i64
  tail call void @llvm.memcpy.p0.p0.i64(ptr align 1 %16, ptr nonnull align 1 %14, i64 %18, i1 false)
  tail call void @_ZN4pkpy14pool64_deallocEPv(ptr noundef nonnull %14) #23
  %.pre.i.i = load i32, ptr %0, align 8
  br label %_ZN4pkpy10pod_vectorIcLi2EE9push_backIRKcEEvOT_.exit.i

_ZN4pkpy10pod_vectorIcLi2EE9push_backIRKcEEvOT_.exit.i: ; preds = %17, %13, %11, %7
  %19 = phi i32 [ %.pre.i.i, %17 ], [ %.pre2.i.i, %13 ], [ %8, %11 ], [ %8, %7 ]
  %20 = load i8, ptr %.07.i, align 1
  %21 = load ptr, ptr %6, align 8
  %22 = add nsw i32 %19, 1
  store i32 %22, ptr %0, align 8
  %23 = sext i32 %19 to i64
  %24 = getelementptr inbounds i8, ptr %21, i64 %23
  store i8 %20, ptr %24, align 1
  %25 = getelementptr inbounds i8, ptr %.07.i, i64 1
  %.not.i = icmp eq ptr %25, %4
  br i1 %.not.i, label %_ZN4pkpy10pod_vectorIcLi2EE6extendEPKcS3_.exit, label %7, !llvm.loop !51

_ZN4pkpy10pod_vectorIcLi2EE6extendEPKcS3_.exit:   ; preds = %_ZN4pkpy10pod_vectorIcLi2EE9push_backIRKcEEvOT_.exit.i, %3
  ret ptr %0
}